target datalayout = "e-m:e-p270:32:32-p271:32:32-p272:64:64-i64:64-i128:128-f80:128-n8:16:32:64-S128"
target triple = "x86_64-pc-linux-gnu"

@.str.40 = private unnamed_addr constant [2 x i8] c"\0A\00", align 1
@.str.213 = private unnamed_addr constant [2 x i8] c" \00", align 1
@.str.377 = private unnamed_addr constant [7 x i8] c"NOCASE\00", align 1
@.str.378 = private unnamed_addr constant [9 x i8] c"FULLWORD\00", align 1
@.str.379 = private unnamed_addr constant [5 x i8] c"WIDE\00", align 1
@.str.380 = private unnamed_addr constant [6 x i8] c"ASCII\00", align 1
@.str.381 = private unnamed_addr constant [8 x i8] c"UNKNOWN\00", align 1

; Function Attrs: nounwind uwtable
define internal i32 @decodesigmod(ptr noundef %0) #0 {
  %2 = alloca i32, align 4
  %3 = alloca ptr, align 8
  %4 = alloca i64, align 8
  store ptr %0, ptr %3, align 8
  store i64 0, ptr %4, align 8
  br label %5

5:                                                ; preds = %22, %1
  %6 = load i64, ptr %4, align 8
  %7 = load ptr, ptr %3, align 8
  %8 = call i64 @strlen(ptr noundef %7) #14
  %9 = icmp ult i64 %6, %8
  br i1 %9, label %10, label %25

10:                                               ; preds = %5
  call void (i32, ptr, ...) @mprintf(i32 noundef 0, ptr noundef @.str.213)
  %11 = load ptr, ptr %3, align 8
  %12 = load i64, ptr %4, align 8
  %13 = getelementptr inbounds i8, ptr %11, i64 %12
  %14 = load i8, ptr %13, align 1
  %15 = sext i8 %14 to i32
  switch i32 %15, label %20 [
    i32 105, label %16
    i32 102, label %17
    i32 119, label %18
    i32 97, label %19
  ]

16:                                               ; preds = %10
  call void (i32, ptr, ...) @mprintf(i32 noundef 0, ptr noundef @.str.377)
  br label %21

17:                                               ; preds = %10
  call void (i32, ptr, ...) @mprintf(i32 noundef 0, ptr noundef @.str.378)
  br label %21

18:                                               ; preds = %10
  call void (i32, ptr, ...) @mprintf(i32 noundef 0, ptr noundef @.str.379)
  br label %21

19:                                               ; preds = %10
  call void (i32, ptr, ...) @mprintf(i32 noundef 0, ptr noundef @.str.380)
  br label %21

20:                                               ; preds = %10
  call void (i32, ptr, ...) @mprintf(i32 noundef 0, ptr noundef @.str.381)
  store i32 -1, ptr %2, align 4
  br label %26

21:                                               ; preds = %19, %18, %17, %16
  br label %22

22:                                               ; preds = %21
  %23 = load i64, ptr %4, align 8
  %24 = add i64 %23, 1
  store i64 %24, ptr %4, align 8
  br label %5

25:                                               ; preds = %5
  call void (i32, ptr, ...) @mprintf(i32 noundef 0, ptr noundef @.str.40)
  store i32 0, ptr %2, align 4
  br label %26

26:                                               ; preds = %25, %20
  %27 = load i32, ptr %2, align 4
  ret i32 %27
}