; Function Attrs: nounwind uwtable
define internal fastcc void @decodesigmod(ptr nocapture noundef readonly %0) unnamed_addr #0 {
  %char0 = load i8, ptr %0, align 1
  %.not = icmp eq i8 %char0, 0
  br i1 %.not, label %._crit_edge, label %.lr.ph

.lr.ph:                                           ; preds = %1, %7
  %.06 = phi i64 [ %8, %7 ], [ 0, %1 ]
  tail call void (i32, ptr, ...) @mprintf(i32 noundef 0, ptr noundef nonnull @.str.213) #25
  %2 = getelementptr inbounds i8, ptr %0, i64 %.06
  %3 = load i8, ptr %2, align 1
  switch i8 %3, label %._crit_edge [
    i8 105, label %7
    i8 102, label %4
    i8 119, label %5
    i8 97, label %6
  ]

4:                                                ; preds = %.lr.ph
  br label %7

5:                                                ; preds = %.lr.ph
  br label %7

6:                                                ; preds = %.lr.ph
  br label %7

7:                                                ; preds = %.lr.ph, %4, %5, %6
  %.str.377.sink = phi ptr [ @.str.378, %4 ], [ @.str.379, %5 ], [ @.str.380, %6 ], [ @.str.377, %.lr.ph ]
  tail call void (i32, ptr, ...) @mprintf(i32 noundef 0, ptr noundef nonnull %.str.377.sink) #25
  %8 = add nuw i64 %.06, 1
  %9 = tail call i64 @strlen(ptr noundef nonnull dereferenceable(1) %0) #31
  %10 = icmp ult i64 %8, %9
  br i1 %10, label %.lr.ph, label %._crit_edge

._crit_edge:                                      ; preds = %7, %.lr.ph, %1
  %.str.40.sink = phi ptr [ @.str.40, %1 ], [ @.str.381, %.lr.ph ], [ @.str.40, %7 ]
  tail call void (i32, ptr, ...) @mprintf(i32 noundef 0, ptr noundef nonnull %.str.40.sink) #25
  ret void
}